; Function Attrs: mustprogress uwtable
define hidden void @_ZNK7grobner16display_equationERSoRKNS_8equationERSt8functionIFvS0_P4exprEE(ptr nocapture noundef nonnull readnone align 8 dereferenceable(228) %this, ptr noundef nonnull align 8 dereferenceable(8) %out, ptr nocapture noundef nonnull readonly align 8 dereferenceable(24) %eq, ptr noundef nonnull align 8 dereferenceable(32) %display_var) local_unnamed_addr #3 align 2 {
entry:
  %m_monomials = getelementptr inbounds i8, ptr %eq, i64 8
  %0 = load ptr, ptr %m_monomials, align 8
  %cmp.i = icmp eq ptr %0, null
  br i1 %cmp.i, label %_ZNK7grobner17display_monomialsERSojPKPNS_8monomialERSt8functionIFvS0_P4exprEE.exit, label %_ZNK6vectorIPN7grobner8monomialELb0EjE4sizeEv.exit

_ZNK6vectorIPN7grobner8monomialELb0EjE4sizeEv.exit: ; preds = %entry
  %arrayidx.i = getelementptr inbounds i8, ptr %0, i64 -4
  %1 = load i32, ptr %arrayidx.i, align 4
  %cmp4.not.i = icmp eq i32 %1, 0
  br i1 %cmp4.not.i, label %_ZNK7grobner17display_monomialsERSojPKPNS_8monomialERSt8functionIFvS0_P4exprEE.exit, label %for.body.preheader.i

for.body.preheader.i:                             ; preds = %_ZNK6vectorIPN7grobner8monomialELb0EjE4sizeEv.exit
  %wide.trip.count.i = zext i32 %1 to i64
  br label %for.body.i

for.body.i:                                       ; preds = %if.end.i4, %for.body.preheader.i
  %indvars.iv.i = phi i64 [ 0, %for.body.preheader.i ], [ %indvars.iv.next.i, %if.end.i4 ]
  %first.06.i = phi i8 [ 1, %for.body.preheader.i ], [ %first.1.i, %if.end.i4 ]
  %arrayidx.i3 = getelementptr inbounds ptr, ptr %0, i64 %indvars.iv.i
  %2 = load ptr, ptr %arrayidx.i3, align 8
  %3 = and i8 %first.06.i, 1
  %tobool.not.i = icmp eq i8 %3, 0
  br i1 %tobool.not.i, label %if.else.i, label %if.end.i4

if.else.i:                                        ; preds = %for.body.i
  %call.i = tail call noundef nonnull align 8 dereferenceable(8) ptr @_ZStlsISt11char_traitsIcEERSt13basic_ostreamIcT_ES5_PKc(ptr noundef nonnull align 8 dereferenceable(8) %out, ptr noundef nonnull @.str.4)
  br label %if.end.i4

if.end.i4:                                        ; preds = %if.else.i, %for.body.i
  %first.1.i = phi i8 [ %first.06.i, %if.else.i ], [ 0, %for.body.i ]
  tail call void @_ZNK7grobner16display_monomialERSoRKNS_8monomialERSt8functionIFvS0_P4exprEE(ptr nonnull align 8 poison, ptr noundef nonnull align 8 dereferenceable(8) %out, ptr noundef nonnull align 8 dereferenceable(40) %2, ptr noundef nonnull align 8 dereferenceable(32) %display_var)
  %indvars.iv.next.i = add nuw nsw i64 %indvars.iv.i, 1
  %exitcond.not.i = icmp eq i64 %indvars.iv.next.i, %wide.trip.count.i
  br i1 %exitcond.not.i, label %_ZNK7grobner17display_monomialsERSojPKPNS_8monomialERSt8functionIFvS0_P4exprEE.exit, label %for.body.i, !llvm.loop !13

_ZNK7grobner17display_monomialsERSojPKPNS_8monomialERSt8functionIFvS0_P4exprEE.exit: ; preds = %if.end.i4, %entry, %_ZNK6vectorIPN7grobner8monomialELb0EjE4sizeEv.exit
  %call4 = tail call noundef nonnull align 8 dereferenceable(8) ptr @_ZStlsISt11char_traitsIcEERSt13basic_ostreamIcT_ES5_PKc(ptr noundef nonnull align 8 dereferenceable(8) %out, ptr noundef nonnull @.str.5)
  ret void
}